target datalayout = "e-m:e-p270:32:32-p271:32:32-p272:64:64-i64:64-i128:128-f80:128-n8:16:32:64-S128"
target triple = "x86_64-pc-linux-gnu"

%struct.darktable_t = type { %struct.dt_codepath_t, i32, i32, ptr, ptr, ptr, ptr, ptr, ptr, ptr, ptr, ptr, ptr, ptr, ptr, ptr, ptr, ptr, ptr, ptr, ptr, ptr, ptr, ptr, ptr, ptr, ptr, ptr, ptr, ptr, [64 x %struct.dt_pthread_mutex_t], %struct.dt_pthread_mutex_t, %struct.dt_pthread_mutex_t, %struct.dt_pthread_mutex_t, %struct.dt_pthread_mutex_t, %struct.dt_pthread_mutex_t, ptr, ptr, ptr, ptr, ptr, ptr, ptr, ptr, ptr, ptr, ptr, ptr, ptr, %struct.dt_lua_state_t, ptr, double, ptr, i32, [47 x i32], i32, i32, ptr, ptr, %struct.dt_sys_resources_t, %struct.dt_backthumb_t, %struct.dt_gimp_t }
%struct.dt_codepath_t = type { i8, [3 x i8] }
%struct.dt_pthread_mutex_t = type { %union.pthread_mutex_t }
%union.pthread_mutex_t = type { %struct.__pthread_mutex_s }
%struct.__pthread_mutex_s = type { i32, i32, i32, i32, i32, i16, i16, %struct.__pthread_internal_list }
%struct.__pthread_internal_list = type { ptr, ptr }
%struct.dt_lua_state_t = type { i32 }
%struct.dt_sys_resources_t = type { i64, i64, ptr, ptr, i32 }
%struct.dt_backthumb_t = type { double, double, i32, i32, i32, i32 }
%struct.dt_gimp_t = type { i32, ptr, ptr, i32, i32 }
%struct.dt_action_t = type { i32, ptr, ptr, ptr, ptr, ptr }
%struct.dt_control_t = type { i32, ptr, %struct.dt_action_t, %struct.dt_action_t, %struct.dt_action_t, %struct.dt_action_t, %struct.dt_action_t, %struct.dt_action_t, %struct.dt_action_t, %struct.dt_action_t, %struct.dt_action_t, %struct.dt_action_t, %struct.dt_action_t, ptr, ptr, ptr, i32, ptr, i32, i32, ptr, ptr, [256 x i8], i32, double, i32, i32, i64, i32, i32, i32, double, double, i32, i32, i32, i32, i32, i32, [8 x [1000 x i8]], i32, i32, %struct.dt_pthread_mutex_t, i32, i32, [2 x [300 x i8]], i32, i32, %struct.dt_pthread_mutex_t, %struct.dt_pthread_mutex_t, %struct.dt_pthread_mutex_t, double, i32, i32, i32, %struct.dt_pthread_mutex_t, %struct.dt_pthread_mutex_t, %union.pthread_cond_t, i32, ptr, i64, i64, ptr, [5 x ptr], [5 x i64], %struct.dt_pthread_mutex_t, [3 x ptr], [3 x i8], [3 x i64], %struct.anon.0, %struct.anon.2 }
%union.pthread_cond_t = type { %struct.__pthread_cond_s }
%struct.__pthread_cond_s = type { %union.__atomic_wide_counter, %union.__atomic_wide_counter, [2 x i32], [2 x i32], i32, i32, [2 x i32] }
%union.__atomic_wide_counter = type { i64 }
%struct.anon.0 = type { ptr, i64, i64, double, %struct.dt_pthread_mutex_t, %struct.anon.1 }
%struct.anon.1 = type { ptr, ptr, ptr, ptr, ptr, ptr }
%struct.anon.2 = type { %struct.anon.3 }
%struct.anon.3 = type { ptr, ptr }
%struct.dt_gui_gtk_t = type { ptr, %struct.dt_gui_widgets_t, %struct.dt_gui_scrollbars_t, i32, ptr, i32, [39 x %struct._GdkRGBA], i32, i32, i32, i32, i32, double, double, double, double, ptr, double, double, double, double, i32, i32, [4096 x i8], i32, i32, i32, %struct.dt_pthread_mutex_t }
%struct.dt_gui_widgets_t = type { ptr, ptr, ptr, ptr, i32, i32, i32 }
%struct.dt_gui_scrollbars_t = type { ptr, ptr, i32 }
%struct._GdkRGBA = type { double, double, double, double }
%struct._GTypeInstance = type { ptr }
%struct._GTypeClass = type { i64 }

@darktable = external global %struct.darktable_t, align 8
@.str.45 = private unnamed_addr constant [14 x i8] c"module-header\00", align 1
@.str.46 = private unnamed_addr constant [13 x i8] c"context-menu\00", align 1
@.str.47 = private unnamed_addr constant [12 x i8] c"not-allowed\00", align 1

; Function Attrs: nounwind uwtable
define internal void @_set_mapping_mode_cursor(ptr noundef %0) #0 {
  %2 = alloca ptr, align 8
  %3 = alloca ptr, align 8
  %4 = alloca ptr, align 8
  %5 = alloca ptr, align 8
  %6 = alloca ptr, align 8
  %7 = alloca i64, align 8
  %8 = alloca i32, align 4
  %9 = alloca i32, align 4
  %10 = alloca i32, align 4
  %11 = alloca ptr, align 8
  %12 = alloca ptr, align 8
  %13 = alloca i32, align 4
  store ptr %0, ptr %2, align 8, !tbaa !68
  call void @llvm.lifetime.start.p0(i64 8, ptr %3) #9
  %14 = call ptr @gdk_display_get_default()
  store ptr %14, ptr %3, align 8, !tbaa !166
  call void @llvm.lifetime.start.p0(i64 8, ptr %4) #9
  %15 = load ptr, ptr getelementptr inbounds nuw (%struct.darktable_t, ptr @darktable, i32 0, i32 14), align 8, !tbaa !60
  %16 = getelementptr inbounds nuw %struct.dt_gui_gtk_t, ptr %15, i32 0, i32 0
  %17 = load ptr, ptr %16, align 8, !tbaa !99
  %18 = call ptr @dt_ui_main_window(ptr noundef %17)
  %19 = call ptr @gtk_widget_get_window(ptr noundef %18)
  store ptr %19, ptr %4, align 8, !tbaa !112
  call void @llvm.lifetime.start.p0(i64 8, ptr %5) #9
  store ptr null, ptr %5, align 8, !tbaa !168
  call void @llvm.lifetime.start.p0(i64 8, ptr %6) #9
  %20 = load ptr, ptr %2, align 8, !tbaa !68
  store ptr %20, ptr %6, align 8, !tbaa !170
  call void @llvm.lifetime.start.p0(i64 8, ptr %7) #9
  %21 = call i64 @gtk_event_box_get_type() #11
  store i64 %21, ptr %7, align 8, !tbaa !172
  call void @llvm.lifetime.start.p0(i64 4, ptr %8) #9
  %22 = load ptr, ptr %6, align 8, !tbaa !170
  %23 = icmp ne ptr %22, null
  br i1 %23, label %25, label %24

24:                                               ; preds = %1
  store i32 0, ptr %8, align 4, !tbaa !97
  br label %44

25:                                               ; preds = %1
  %26 = load ptr, ptr %6, align 8, !tbaa !170
  %27 = getelementptr inbounds nuw %struct._GTypeInstance, ptr %26, i32 0, i32 0
  %28 = load ptr, ptr %27, align 8, !tbaa !173
  %29 = icmp ne ptr %28, null
  br i1 %29, label %30, label %39

30:                                               ; preds = %25
  %31 = load ptr, ptr %6, align 8, !tbaa !170
  %32 = getelementptr inbounds nuw %struct._GTypeInstance, ptr %31, i32 0, i32 0
  %33 = load ptr, ptr %32, align 8, !tbaa !173
  %34 = getelementptr inbounds nuw %struct._GTypeClass, ptr %33, i32 0, i32 0
  %35 = load i64, ptr %34, align 8, !tbaa !174
  %36 = load i64, ptr %7, align 8, !tbaa !172
  %37 = icmp eq i64 %35, %36
  br i1 %37, label %38, label %39

38:                                               ; preds = %30
  store i32 1, ptr %8, align 4, !tbaa !97
  br label %43

39:                                               ; preds = %30, %25
  %40 = load ptr, ptr %6, align 8, !tbaa !170
  %41 = load i64, ptr %7, align 8, !tbaa !172
  %42 = call i32 @g_type_check_instance_is_a(ptr noundef %40, i64 noundef %41) #12
  store i32 %42, ptr %8, align 4, !tbaa !97
  br label %43

43:                                               ; preds = %39, %38
  br label %44

44:                                               ; preds = %43, %24
  %45 = load i32, ptr %8, align 4, !tbaa !97
  store i32 %45, ptr %9, align 4, !tbaa !97
  call void @llvm.lifetime.end.p0(i64 4, ptr %8) #9
  call void @llvm.lifetime.end.p0(i64 8, ptr %7) #9
  call void @llvm.lifetime.end.p0(i64 8, ptr %6) #9
  %46 = load i32, ptr %9, align 4, !tbaa !97
  %47 = icmp ne i32 %46, 0
  br i1 %47, label %48, label %53

48:                                               ; preds = %44
  %49 = load ptr, ptr %2, align 8, !tbaa !68
  %50 = call i64 @gtk_bin_get_type() #11
  %51 = call ptr @g_type_check_instance_cast(ptr noundef %49, i64 noundef %50)
  %52 = call ptr @gtk_bin_get_child(ptr noundef %51)
  store ptr %52, ptr %2, align 8, !tbaa !68
  br label %53

53:                                               ; preds = %48, %44
  %54 = load ptr, ptr %2, align 8, !tbaa !68
  %55 = icmp ne ptr %54, null
  br i1 %55, label %56, label %64

56:                                               ; preds = %53
  %57 = load ptr, ptr %2, align 8, !tbaa !68
  %58 = call ptr @gtk_widget_get_name(ptr noundef %57)
  %59 = call i32 @strcmp(ptr noundef %58, ptr noundef @.str.45) #12
  %60 = icmp ne i32 %59, 0
  br i1 %60, label %64, label %61

61:                                               ; preds = %56
  %62 = load ptr, ptr %3, align 8, !tbaa !166
  %63 = call ptr @gdk_cursor_new_from_name(ptr noundef %62, ptr noundef @.str.46)
  store ptr %63, ptr %5, align 8, !tbaa !168
  br label %106

64:                                               ; preds = %56, %53
  %65 = load ptr, ptr getelementptr inbounds nuw (%struct.darktable_t, ptr @darktable, i32 0, i32 12), align 8, !tbaa !23
  %66 = getelementptr inbounds nuw %struct.dt_control_t, ptr %65, i32 0, i32 17
  %67 = load ptr, ptr %66, align 8, !tbaa !142
  %68 = call ptr @dt_action_widget(ptr noundef %67)
  %69 = icmp ne ptr %68, null
  br i1 %69, label %70, label %102

70:                                               ; preds = %64
  %71 = load ptr, ptr getelementptr inbounds nuw (%struct.darktable_t, ptr @darktable, i32 0, i32 9), align 8, !tbaa !176
  %72 = icmp ne ptr %71, null
  br i1 %72, label %73, label %102

73:                                               ; preds = %70
  call void @llvm.lifetime.start.p0(i64 4, ptr %10) #9
  %74 = load ptr, ptr %3, align 8, !tbaa !166
  %75 = call i32 @gdk_display_get_default_cursor_size(ptr noundef %74)
  store i32 %75, ptr %10, align 4, !tbaa !97
  call void @llvm.lifetime.start.p0(i64 8, ptr %11) #9
  %76 = load i32, ptr %10, align 4, !tbaa !97
  %77 = uitofp i32 %76 to double
  %78 = fmul reassoc nsz arcp contract afn double %77, 1.500000e+00
  %79 = fptosi double %78 to i32
  %80 = load i32, ptr %10, align 4, !tbaa !97
  %81 = call ptr @cairo_image_surface_create(i32 noundef 0, i32 noundef %79, i32 noundef %80)
  store ptr %81, ptr %11, align 8, !tbaa !177
  call void @llvm.lifetime.start.p0(i64 8, ptr %12) #9
  %82 = load ptr, ptr %11, align 8, !tbaa !177
  %83 = call ptr @cairo_create(ptr noundef %82)
  store ptr %83, ptr %12, align 8, !tbaa !179
  call void @llvm.lifetime.start.p0(i64 4, ptr %13) #9
  %84 = load ptr, ptr getelementptr inbounds nuw (%struct.darktable_t, ptr @darktable, i32 0, i32 9), align 8, !tbaa !176
  %85 = load ptr, ptr %2, align 8, !tbaa !68
  %86 = call i32 @dt_dev_modulegroups_basics_module_toggle(ptr noundef %84, ptr noundef %85, i32 noundef 0)
  store i32 %86, ptr %13, align 4, !tbaa !97
  %87 = load ptr, ptr %12, align 8, !tbaa !179
  %88 = load i32, ptr %10, align 4, !tbaa !97
  %89 = load i32, ptr %10, align 4, !tbaa !97
  %90 = load i32, ptr %13, align 4, !tbaa !97
  call void @dtgtk_cairo_paint_shortcut(ptr noundef %87, i32 noundef 0, i32 noundef 0, i32 noundef %88, i32 noundef %89, i32 noundef %90, ptr noundef inttoptr (i64 1 to ptr))
  %91 = load ptr, ptr %3, align 8, !tbaa !166
  %92 = load ptr, ptr %11, align 8, !tbaa !177
  %93 = load i32, ptr %10, align 4, !tbaa !97
  %94 = udiv i32 %93, 2
  %95 = uitofp i32 %94 to double
  %96 = load i32, ptr %10, align 4, !tbaa !97
  %97 = udiv i32 %96, 2
  %98 = uitofp i32 %97 to double
  %99 = call ptr @gdk_cursor_new_from_surface(ptr noundef %91, ptr noundef %92, double noundef %95, double noundef %98)
  store ptr %99, ptr %5, align 8, !tbaa !168
  %100 = load ptr, ptr %11, align 8, !tbaa !177
  call void @cairo_surface_destroy(ptr noundef %100)
  %101 = load ptr, ptr %4, align 8, !tbaa !112
  call void @gdk_window_set_cursor(ptr noundef %101, ptr noundef null)
  call void @llvm.lifetime.end.p0(i64 4, ptr %13) #9
  call void @llvm.lifetime.end.p0(i64 8, ptr %12) #9
  call void @llvm.lifetime.end.p0(i64 8, ptr %11) #9
  call void @llvm.lifetime.end.p0(i64 4, ptr %10) #9
  br label %105

102:                                              ; preds = %70, %64
  %103 = load ptr, ptr %3, align 8, !tbaa !166
  %104 = call ptr @gdk_cursor_new_from_name(ptr noundef %103, ptr noundef @.str.47)
  store ptr %104, ptr %5, align 8, !tbaa !168
  br label %105

105:                                              ; preds = %102, %73
  br label %106

106:                                              ; preds = %105, %61
  %107 = load ptr, ptr %4, align 8, !tbaa !112
  %108 = load ptr, ptr %5, align 8, !tbaa !168
  call void @gdk_window_set_cursor(ptr noundef %107, ptr noundef %108)
  %109 = load ptr, ptr %5, align 8, !tbaa !168
  call void @g_object_unref(ptr noundef %109)
  call void @llvm.lifetime.end.p0(i64 8, ptr %5) #9
  call void @llvm.lifetime.end.p0(i64 8, ptr %4) #9
  call void @llvm.lifetime.end.p0(i64 8, ptr %3) #9
  ret void
}