; Function Attrs: nounwind uwtable
define internal fastcc void @_set_mapping_mode_cursor(ptr noundef %0) unnamed_addr #1 {
  %2 = tail call ptr @gdk_display_get_default() #10
  %3 = load ptr, ptr getelementptr inbounds nuw (i8, ptr @darktable, i64 104), align 8, !tbaa !56
  %4 = load ptr, ptr %3, align 8, !tbaa !93
  %5 = tail call ptr @dt_ui_main_window(ptr noundef %4) #10
  %6 = tail call ptr @gtk_widget_get_window(ptr noundef %5) #10
  %7 = tail call i64 @gtk_event_box_get_type() #12
  %.not = icmp eq ptr %0, null
  br i1 %.not, label %.critedge.thread, label %8

8:                                                ; preds = %1
  %9 = load ptr, ptr %0, align 8, !tbaa !152
  %.not36 = icmp eq ptr %9, null
  br i1 %.not36, label %13, label %10

10:                                               ; preds = %8
  %11 = load i64, ptr %9, align 8, !tbaa !153
  %12 = icmp eq i64 %11, %7
  br i1 %12, label %.critedge, label %13

13:                                               ; preds = %10, %8
  %14 = tail call i32 @g_type_check_instance_is_a(ptr noundef nonnull %0, i64 noundef %7) #13
  %15 = icmp eq i32 %14, 0
  br i1 %15, label %.critedge.thread45, label %.critedge

.critedge:                                        ; preds = %13, %10
  %16 = tail call i64 @gtk_bin_get_type() #12
  %17 = tail call ptr @g_type_check_instance_cast(ptr noundef nonnull %0, i64 noundef %16) #10
  %18 = tail call ptr @gtk_bin_get_child(ptr noundef %17) #10
  %.not38 = icmp eq ptr %18, null
  br i1 %.not38, label %.critedge.thread, label %.critedge.thread45

.critedge.thread45:                               ; preds = %13, %.critedge
  %.048 = phi ptr [ %18, %.critedge ], [ %0, %13 ]
  %19 = tail call ptr @gtk_widget_get_name(ptr noundef nonnull %.048) #10
  %20 = tail call i32 @strcmp(ptr noundef nonnull dereferenceable(1) %19, ptr noundef nonnull dereferenceable(14) @.str.45) #13
  %.not39 = icmp eq i32 %20, 0
  br i1 %.not39, label %21, label %.critedge.thread

21:                                               ; preds = %.critedge.thread45
  %22 = tail call ptr @gdk_cursor_new_from_name(ptr noundef %2, ptr noundef nonnull @.str.46) #10
  br label %44

.critedge.thread:                                 ; preds = %1, %.critedge.thread45, %.critedge
  %.044 = phi ptr [ %.048, %.critedge.thread45 ], [ null, %.critedge ], [ null, %1 ]
  %23 = load ptr, ptr getelementptr inbounds nuw (i8, ptr @darktable, i64 88), align 8, !tbaa !19
  %24 = getelementptr inbounds nuw i8, ptr %23, i64 576
  %25 = load ptr, ptr %24, align 8, !tbaa !129
  %26 = tail call ptr @dt_action_widget(ptr noundef %25) #10
  %27 = icmp ne ptr %26, null
  %28 = load ptr, ptr getelementptr inbounds nuw (i8, ptr @darktable, i64 64), align 8
  %29 = icmp ne ptr %28, null
  %or.cond = select i1 %27, i1 %29, i1 false
  br i1 %or.cond, label %30, label %42

30:                                               ; preds = %.critedge.thread
  %31 = tail call i32 @gdk_display_get_default_cursor_size(ptr noundef %2) #10
  %32 = uitofp i32 %31 to double
  %33 = fmul reassoc nsz arcp contract afn double %32, 1.500000e+00
  %34 = fptosi double %33 to i32
  %35 = tail call ptr @cairo_image_surface_create(i32 noundef 0, i32 noundef %34, i32 noundef %31) #10
  %36 = tail call ptr @cairo_create(ptr noundef %35) #10
  %37 = load ptr, ptr getelementptr inbounds nuw (i8, ptr @darktable, i64 64), align 8, !tbaa !155
  %38 = tail call i32 @dt_dev_modulegroups_basics_module_toggle(ptr noundef %37, ptr noundef %.044, i32 noundef 0) #10
  tail call void @dtgtk_cairo_paint_shortcut(ptr noundef %36, i32 noundef 0, i32 noundef 0, i32 noundef %31, i32 noundef %31, i32 noundef %38, ptr noundef nonnull inttoptr (i64 1 to ptr)) #10
  %39 = lshr i32 %31, 1
  %40 = uitofp nneg i32 %39 to double
  %41 = tail call ptr @gdk_cursor_new_from_surface(ptr noundef %2, ptr noundef %35, double noundef %40, double noundef %40) #10
  tail call void @cairo_surface_destroy(ptr noundef %35) #10
  tail call void @gdk_window_set_cursor(ptr noundef %6, ptr noundef null) #10
  br label %44

42:                                               ; preds = %.critedge.thread
  %43 = tail call ptr @gdk_cursor_new_from_name(ptr noundef %2, ptr noundef nonnull @.str.47) #10
  br label %44

44:                                               ; preds = %30, %42, %21
  %.032 = phi ptr [ %41, %30 ], [ %43, %42 ], [ %22, %21 ]
  tail call void @gdk_window_set_cursor(ptr noundef %6, ptr noundef %.032) #10
  tail call void @g_object_unref(ptr noundef %.032) #10
  ret void
}